; Function Attrs: mustprogress nofree nounwind willreturn memory(write, argmem: readwrite) uwtable
define hidden noundef i64 @_ZNK18G1ConcurrentRefine22adjust_threads_wait_msEv(ptr nocapture noundef nonnull readonly align 8 dereferenceable(136) %0) local_unnamed_addr #3 align 2 {
  %2 = getelementptr inbounds i8, ptr %0, i64 16
  %3 = load i64, ptr %2, align 8
  %.not = icmp eq i64 %3, -1
  br i1 %.not, label %11, label %4

4:                                                ; preds = %1
  %5 = getelementptr inbounds i8, ptr %0, i64 80
  %6 = load double, ptr %5, align 8
  %7 = tail call double @sqrt(double noundef %6) #17
  %8 = fmul double %7, 4.000000e+00
  %9 = fptoui double %8 to i64
  %10 = tail call noundef i64 @llvm.umax.i64(i64 %9, i64 50)
  br label %11

11:                                               ; preds = %1, %4
  %.0 = phi i64 [ %10, %4 ], [ 0, %1 ]
  ret i64 %.0
}